(dp0
S'G'
p1
ccopy_reg
_reconstructor
p2
(cnetworkx.classes.graph
Graph
p3
c__builtin__
object
p4
Ntp5
Rp6
(dp7
S'adjlist_inner_dict_factory'
p8
c__builtin__
dict
p9
sS'node_dict_factory'
p10
g9
sS'edge_attr_dict_factory'
p11
g9
sS'_node'
p12
(dp13
I0
(dp14
S'config'
p15
(cnumpy.core.multiarray
scalar
p16
(cnumpy
dtype
p17
(S'f8'
p18
I0
I1
tp19
Rp20
(I3
S'<'
p21
NNNI-1
I-1
I0
tp22
bS'\xcd\xcc\xcc\xcc\xcc\xcc\xec?'
p23
tp24
Rp25
g16
(g20
S'\xcd\xcc\xcc\xcc\xccL%@'
p26
tp27
Rp28
tp29
ssI1
(dp30
g15
(g16
(g20
S'\xcd\xcc\xcc\xcc\xcc\xcc\x11@'
p31
tp32
Rp33
g16
(g20
S'\x9a\x99\x99\x99\x99\x99\x12@'
p34
tp35
Rp36
tp37
ssI2
(dp38
g15
(g16
(g20
S'433333\xfb?'
p39
tp40
Rp41
g16
(g20
S'\x00\x00\x00\x00\x00\x00\x12@'
p42
tp43
Rp44
tp45
ssI3
(dp46
g15
(g16
(g20
S'\x9a\x99\x99\x99\x99\x99\xf5?'
p47
tp48
Rp49
g16
(g20
S'\xcd\xcc\xcc\xcc\xcc\xcc\x04@'
p50
tp51
Rp52
tp53
ssI4
(dp54
g15
(g16
(g20
S'\x00\x00\x00\x00\x00\x00!@'
p55
tp56
Rp57
g16
(g20
S'\xcd\xcc\xcc\xcc\xcc\xcc\x17@'
p58
tp59
Rp60
tp61
ssI5
(dp62
g15
(g16
(g20
S'gfffff\xd6?'
p63
tp64
Rp65
g16
(g20
S'\x9a\x99\x99\x99\x99\x99\x1c@'
p66
tp67
Rp68
tp69
ssI6
(dp70
g15
(g16
(g20
S'gfffff\x08@'
p71
tp72
Rp73
g16
(g20
S'\x00\x00\x00\x00\x00\x00\x13@'
p74
tp75
Rp76
tp77
ssI7
(dp78
g15
(g16
(g20
S'\x9a\x99\x99\x99\x99\x99\x01@'
p79
tp80
Rp81
g16
(g20
S'gfffff!@'
p82
tp83
Rp84
tp85
ssI8
(dp86
g15
(g16
(g20
S'\x9a\x99\x99\x99\x99\x99\x1d@'
p87
tp88
Rp89
g16
(g20
S'\xcd\xcc\xcc\xcc\xcc\xcc\x10@'
p90
tp91
Rp92
tp93
ssI9
(dp94
g15
(g16
(g20
S'\x9a\x99\x99\x99\x99\x99\xfd?'
p95
tp96
Rp97
g16
(g20
S'gfffff\x12@'
p98
tp99
Rp100
tp101
ssI10
(dp102
g15
(g16
(g20
S'433333\x1a@'
p103
tp104
Rp105
g16
(g20
S'43333\xb3$@'
p106
tp107
Rp108
tp109
ssI11
(dp110
g15
(g16
(g20
S'\x9a\x99\x99\x99\x99\x99\x05@'
p111
tp112
Rp113
g16
(g20
S'\x00\x00\x00\x00\x00\x00\xd0?'
p114
tp115
Rp116
tp117
ssI12
(dp118
g15
(g16
(g20
S'\xcd\xcc\xcc\xcc\xcc\xcc\x1b@'
p119
tp120
Rp121
g16
(g20
S'gfffff\xf2?'
p122
tp123
Rp124
tp125
ssI13
(dp126
g15
(g16
(g20
S'\x9a\x99\x99\x99\x99\x99\xd9?'
p127
tp128
Rp129
g16
(g20
S'433333\x1c@'
p130
tp131
Rp132
tp133
ssI14
(dp134
g15
(g16
(g20
S'\xcd\xcc\xcc\xcc\xcc\xcc!@'
p135
tp136
Rp137
g16
(g20
S'\x00\x00\x00\x00\x00\x00\x02@'
p138
tp139
Rp140
tp141
ssI15
(dp142
g15
(g16
(g20
S'gffff\xe6 @'
p143
tp144
Rp145
g16
(g20
S'\x9a\x99\x99\x99\x99\x99!@'
p146
tp147
Rp148
tp149
ssI16
(dp150
g15
(g16
(g20
S'433333\x0b@'
p151
tp152
Rp153
g16
(g20
S'gfffff\xfe?'
p154
tp155
Rp156
tp157
ssI17
(dp158
g15
(g16
(g20
S'\xcd\xcc\xcc\xcc\xcc\xcc\x12@'
p159
tp160
Rp161
g16
(g20
S'gfffff\x11@'
p162
tp163
Rp164
tp165
ssI18
(dp166
g15
(g16
(g20
S'\x00\x00\x00\x00\x00\x00\xf0?'
p167
tp168
Rp169
g16
(g20
S'\xcd\xcc\xcc\xcc\xcc\xcc$@'
p170
tp171
Rp172
tp173
ssI19
(dp174
g15
(g16
(g20
S'\x9a\x99\x99\x99\x99\x99\x1e@'
p175
tp176
Rp177
g16
(g20
S'433333\x1a@'
p178
tp179
Rp180
tp181
ssI20
(dp182
g15
(g16
(g20
S'\xcd\xcc\xcc\xcc\xcc\xcc\x15@'
p183
tp184
Rp185
g16
(g20
S'433333\xd3?'
p186
tp187
Rp188
tp189
ssI21
(dp190
g15
(g16
(g20
S'\xcd\xcc\xcc\xcc\xcc\xcc\x14@'
p191
tp192
Rp193
g16
(g20
S'\xcd\xcc\xcc\xcc\xcc\xcc\xf0?'
p194
tp195
Rp196
tp197
ssI22
(dp198
g15
(g16
(g20
S'\xcd\xcc\xcc\xcc\xccL!@'
p199
tp200
Rp201
g16
(g20
S'\xcd\xcc\xcc\xcc\xcc\xcc\x14@'
p202
tp203
Rp204
tp205
ssI23
(dp206
g15
(g16
(g20
S'433333\x1d@'
p207
tp208
Rp209
g16
(g20
S'\xcd\xcc\xcc\xcc\xcc\xcc\x18@'
p210
tp211
Rp212
tp213
ssI24
(dp214
g15
(g16
(g20
S'\x9a\x99\x99\x99\x99\x99\x18@'
p215
tp216
Rp217
g16
(g20
S'\x9a\x99\x99\x99\x99\x99\xc9?'
p218
tp219
Rp220
tp221
ssI25
(dp222
g15
(g16
(g20
S'\x9a\x99\x99\x99\x99\x99\xf1?'
p223
tp224
Rp225
g16
(g20
S'\x00\x00\x00\x00\x00\x00$@'
p226
tp227
Rp228
tp229
ssI26
(dp230
g15
(g16
(g20
S'433333\xff?'
p231
tp232
Rp233
g16
(g20
S'gfffff\x14@'
p234
tp235
Rp236
tp237
ssI27
(dp238
g15
(g16
(g20
S'gfffff\xee?'
p239
tp240
Rp241
g16
(g20
S'gfffff\xe6?'
p242
tp243
Rp244
tp245
ssI28
(dp246
g15
(g16
(g20
S'\x00\x00\x00\x00\x00\x00\xe8?'
p247
tp248
Rp249
g16
(g20
S'\x00\x00\x00\x00\x00\x00\x16@'
p250
tp251
Rp252
tp253
ssI29
(dp254
g15
(g16
(g20
S'433333\xff?'
p255
tp256
Rp257
g16
(g20
S'gfffff\x08@'
p258
tp259
Rp260
tp261
ssI30
(dp262
g15
(g16
(g20
S'gfffff\xf6?'
p263
tp264
Rp265
g16
(g20
S'\x9a\x99\x99\x99\x99\x19%@'
p266
tp267
Rp268
tp269
ssI31
(dp270
g15
(g16
(g20
S'433333\xfb?'
p271
tp272
Rp273
g16
(g20
S'\xcd\xcc\xcc\xcc\xcc\xcc\xf8?'
p274
tp275
Rp276
tp277
ssI32
(dp278
g15
(g16
(g20
S'gfffff\x17@'
p279
tp280
Rp281
g16
(g20
S'\x9a\x99\x99\x99\x99\x99\xd9?'
p282
tp283
Rp284
tp285
ssI33
(dp286
g15
(g16
(g20
S'gfffff\x17@'
p287
tp288
Rp289
g16
(g20
S'\x9a\x99\x99\x99\x99\x99\x1c@'
p290
tp291
Rp292
tp293
ssI34
(dp294
g15
(g16
(g20
S'\x9a\x99\x99\x99\x99\x99\x0b@'
p295
tp296
Rp297
g16
(g20
S'\x00\x00\x00\x00\x00\x80%@'
p298
tp299
Rp300
tp301
ssI35
(dp302
g15
(g16
(g20
S'gfffff\x1f@'
p303
tp304
Rp305
g16
(g20
S'433333\x1d@'
p306
tp307
Rp308
tp309
ssI36
(dp310
g15
(g16
(g20
S'\x00\x00\x00\x00\x00\x00\x1e@'
p311
tp312
Rp313
g16
(g20
S'\x00\x00\x00\x00\x00\x00\x00\x00'
p314
tp315
Rp316
tp317
ssI37
(dp318
g15
(g16
(g20
S'\x00\x00\x00\x00\x00\x00\x08@'
p319
tp320
Rp321
g16
(g20
S'gfffff#@'
p322
tp323
Rp324
tp325
ssI38
(dp326
g15
(g16
(g20
S'\x9a\x99\x99\x99\x99\x99\x1a@'
p327
tp328
Rp329
g16
(g20
S'\x00\x00\x00\x00\x00\x00\x00\x00'
p330
tp331
Rp332
tp333
ssI39
(dp334
g15
(g16
(g20
S'\x00\x00\x00\x00\x00\x00\xe0?'
p335
tp336
Rp337
g16
(g20
S'\xcd\xcc\xcc\xcc\xccL%@'
p338
tp339
Rp340
tp341
sssS'graph'
p342
(dp343
sS'nodes'
p344
g2
(cnetworkx.classes.reportviews
NodeView
p345
g4
Ntp346
Rp347
(dp348
S'_nodes'
p349
g13
sbsS'_adj'
p350
(dp351
I0
(dp352
I33
(dp353
S'weight'
p354
g16
(g20
S'\xe4V\xae\x98\xe1?\x18@'
p355
tp356
Rp357
ssI2
(dp358
g354
g16
(g20
S'e<\x1ae\xa8\xce\x18@'
p359
tp360
Rp361
ssI3
(dp362
g354
g16
(g20
S'\xbb&\xf8\xe3\x08  @'
p363
tp364
Rp365
ssI5
(dp366
g354
g16
(g20
S'\x08\xa3\xc2\x8f\xf6W\x0c@'
p367
tp368
Rp369
ssI7
(dp370
g354
g16
(g20
S'DG?\xb9\xb5\xbf\x02@'
p371
tp372
Rp373
ssI37
(dp374
g354
g16
(g20
S'\x9a.\x90!hp\x02@'
p375
tp376
Rp377
ssI9
(dp378
g354
g16
(g20
S'-\xdd5\x9d\x1c\x7f\x18@'
p379
tp380
Rp381
ssI10
(dp382
g354
g16
(g20
S'\x18\x15\xc7\x00\xc0\xa1\x16@'
p383
tp384
Rp385
ssI39
(dp386
g354
g16
(g20
S'\x9a\x99\x99\x99\x99\x99\xd9?'
p387
tp388
Rp389
ssI13
(dp390
g354
g16
(g20
S'\t>%J\x92\x13\r@'
p391
tp392
Rp393
ssI15
(dp394
g354
g16
(g20
S'\xe2\x0b\x83\x90\xe9\x17\x1f@'
p395
tp396
Rp397
ssI34
(dp398
g354
g16
(g20
S'g\xf4O\x05jj\x04@'
p399
tp400
Rp401
ssI18
(dp402
g354
g16
(g20
S'\\\xae \xea\x86;\xd1?'
p403
tp404
Rp405
ssI35
(dp406
g354
g16
(g20
S'M$\xe7\x17i\xdc\x1e@'
p407
tp408
Rp409
ssI25
(dp410
g354
g16
(g20
S')\x0b\xd4\x8d)\xc3\xe5?'
p411
tp412
Rp413
ssI26
(dp414
g354
g16
(g20
S'\xcd!\xb2\x91\x03\x98\x16@'
p415
tp416
Rp417
ssI27
(dp418
g354
g16
(g20
S'^\x19\xc1\xddv\xe6#@'
p419
tp420
Rp421
ssI28
(dp422
g354
g16
(g20
S"\xbb'\x8e\x1f\xd6\x9b\x14@"
p423
tp424
Rp425
ssI29
(dp426
g354
g16
(g20
S'g\xee\xee\x95R\xb0\x1e@'
p427
tp428
Rp429
ssI30
(dp430
g354
g16
(g20
S'_&\xa8\xe5\x1dQ\xe0?'
p431
tp432
Rp433
ssI31
(dp434
g354
g16
(g20
S'\xebM>t+E"@'
p435
tp436
Rp437
sssI1
(dp438
I9
(dp439
g354
g16
(g20
S'i\xc8\x96\xd6\xc8\xcd\x04@'
p440
tp441
Rp442
ssI2
(dp443
g354
g16
(g20
S'\x8e\x9f\xba8_\x08\x06@'
p444
tp445
Rp446
ssI6
(dp447
g354
g16
(g20
S'T\xcf\xbc\x8c\x02u\xf6?'
p448
tp449
Rp450
ssI17
(dp451
g354
g16
(g20
S'\xeb)\xa5\x12(\xfe\xd8?'
p452
tp453
Rp454
sssI2
(dp455
I0
g358
sI1
g443
sI3
(dp456
g354
g16
(g20
S'\xb88\x88.W\xe9\xfe?'
p457
tp458
Rp459
ssI5
(dp460
g354
g16
(g20
S'C\x1a \x12\xdd\xca\x07@'
p461
tp462
Rp463
ssI6
(dp464
g354
g16
(g20
S'\xdduw\x96\x9d\xf7\xf5?'
p465
tp466
Rp467
ssI7
(dp468
g354
g16
(g20
S'\x8b:\x91A+\xeb\x10@'
p469
tp470
Rp471
ssI9
(dp472
g354
g16
(g20
S'\x98\xe1M\xd0U\x13\xc7?'
p473
tp474
Rp475
ssI39
(dp476
g354
g16
(g20
S'/\x12\xf1\xf2\\\x10\x19@'
p477
tp478
Rp479
ssI13
(dp480
g354
g16
(g20
S'\x9b/\xa8\x9c\xe5\xe5\x06@'
p481
tp482
Rp483
ssI17
(dp484
g354
g16
(g20
S'\xde\xbfL\xda\xac\x07\x08@'
p485
tp486
Rp487
ssI18
(dp488
g354
g16
(g20
S'TvC3\xf9\xc3\x17@'
p489
tp490
Rp491
ssI25
(dp492
g354
g16
(g20
S'5\xfdE\xe2i!\x16@'
p493
tp494
Rp495
ssI26
(dp496
g354
g16
(g20
S'\xd1\xcc\xcc\xcc\xcc\xcc\xe4?'
p497
tp498
Rp499
ssI27
(dp500
g354
g16
(g20
S"\xa6'\x17\xe6\x87\xfc\x0e@"
p501
tp502
Rp503
ssI28
(dp504
g354
g16
(g20
S'\x1c<\xa4\xda\xa8\x11\xf6?'
p505
tp506
Rp507
ssI29
(dp508
g354
g16
(g20
S'\x04`\xafS\xd4\x8a\xf7?'
p509
tp510
Rp511
ssI30
(dp512
g354
g16
(g20
S'2\x1d\x94\xd5\xcf:\x18@'
p513
tp514
Rp515
ssI31
(dp516
g354
g16
(g20
S'\x9a\x99\x99\x99\x99\x99\x07@'
p517
tp518
Rp519
sssI3
(dp520
I0
g362
sI2
g456
sI5
(dp521
g354
g16
(g20
S'\x08Y,\x85f\xa2\x12@'
p522
tp523
Rp524
ssI7
(dp525
g354
g16
(g20
S'0\xd4pF\xc0\xa2\x18@'
p526
tp527
Rp528
ssI9
(dp529
g354
g16
(g20
S'\x08\xed\xaff\x0f~\x00@'
p530
tp531
Rp532
ssI11
(dp533
g354
g16
(g20
S'y\x1aF\x89k\xae\x05@'
p534
tp535
Rp536
ssI13
(dp537
g354
g16
(g20
S'\xb7\x00%7{3\x12@'
p538
tp539
Rp540
ssI18
(dp541
g354
g16
(g20
S'}\xf1\xdb\xaa<;\x1f@'
p542
tp543
Rp544
ssI39
(dp545
g354
g16
(g20
S'\xba\xa1\xef@\x830 @'
p546
tp547
Rp548
ssI25
(dp549
g354
g16
(g20
S'P|\xb3O\xec\x9d\x1d@'
p550
tp551
Rp552
ssI26
(dp553
g354
g16
(g20
S'h\x92~Dd\x91\x04@'
p554
tp555
Rp556
ssI27
(dp557
g354
g16
(g20
S'\xb1V\xb2P\xfe\x10\xff?'
p558
tp559
Rp560
ssI28
(dp561
g354
g16
(g20
S"'NT9\xfc\xb0\x07@"
p562
tp563
Rp564
ssI29
(dp565
g354
g16
(g20
S'\x01\x00\x00\x00\x00\x00\xe8?'
p566
tp567
Rp568
ssI30
(dp569
g354
g16
(g20
S'\xaaag\x04\xf6\xcc\x1f@'
p570
tp571
Rp572
ssI31
(dp573
g354
g16
(g20
S'\xed?\xff\xf5p\xb5\xf1?'
p574
tp575
Rp576
sssI4
(dp577
I34
(dp578
g354
g16
(g20
S'6\xc2=ku\xde\x1b@'
p579
tp580
Rp581
ssI35
(dp582
g354
g16
(g20
S'\xb1\xd4\xbef+\xf9\xf7?'
p583
tp584
Rp585
ssI36
(dp586
g354
g16
(g20
S'\x99\\`N@"\x18@'
p587
tp588
Rp589
ssI38
(dp590
g354
g16
(g20
S'\xdb\xd0\x90\xab\x83\xec\x18@'
p591
tp592
Rp593
ssI8
(dp594
g354
g16
(g20
S'\x14\x17\xe9\xb08\x89\x00@'
p595
tp596
Rp597
ssI10
(dp598
g354
g16
(g20
S'"\xdf\x07\xd5?@\x13@'
p599
tp600
Rp601
ssI12
(dp602
g354
g16
(g20
S'\x14\x10\xeb\xfd\x1c-\x14@'
p603
tp604
Rp605
ssI14
(dp606
g354
g16
(g20
S'=/\x86\xa0\xc0\xc5\r@'
p607
tp608
Rp609
ssI15
(dp610
g354
g16
(g20
S'\xec\x12\xb2\xbb\xb2\xcd\x06@'
p611
tp612
Rp613
ssI19
(dp614
g354
g16
(g20
S'\xd9{\x0b\xa8\x9c\xa5\xf0?'
p615
tp616
Rp617
ssI22
(dp618
g354
g16
(g20
S'\x8f9|\xd8\xacy\xe8?'
p619
tp620
Rp621
ssI23
(dp622
g354
g16
(g20
S"d'\xc4\xd4\xbb\x9c\xf3?"
p623
tp624
Rp625
sssI5
(dp626
I0
g366
sI33
(dp627
g354
g16
(g20
S'\x01\x00\x00\x00\x00\x00\x16@'
p628
tp629
Rp630
ssI2
g460
sI3
g521
sI37
(dp631
g354
g16
(g20
S'\xf9\xcd\xd5\xf4\xcbk\r@'
p632
tp633
Rp634
ssI7
(dp635
g354
g16
(g20
S'.\xcf\x13\x04\xdbN\x03@'
p636
tp637
Rp638
ssI9
(dp639
g354
g16
(g20
S'xS\xdeZ\xee\xaa\x07@'
p640
tp641
Rp642
ssI10
(dp643
g354
g16
(g20
S'\x81\x1f\x8bR\x8e\xe8\x1b@'
p644
tp645
Rp646
ssI39
(dp647
g354
g16
(g20
S'7\x885p\x94\x06\x0c@'
p648
tp649
Rp650
ssI13
(dp651
g354
g16
(g20
S'\xc2\xed\xbf\xc5%\x9f\xbc?'
p652
tp653
Rp654
ssI15
(dp655
g354
g16
(g20
S'\x15\xf9\x10\xb1^\x88 @'
p656
tp657
Rp658
ssI34
(dp659
g354
g16
(g20
S'\xbe\xaeG\xf0\xce\x00\x13@'
p660
tp661
Rp662
ssI18
(dp663
g354
g16
(g20
S'Z>1\x95\xd0\x83\n@'
p664
tp665
Rp666
ssI35
(dp667
g354
g16
(g20
S'\x98O;-\x89\x01\x1e@'
p668
tp669
Rp670
ssI25
(dp671
g354
g16
(g20
S'\x9co\xd4\xb9\x85\x93\x07@'
p672
tp673
Rp674
ssI26
(dp675
g354
g16
(g20
S'i\xc8\x96\xd6\xc8\xcd\x04@'
p676
tp677
Rp678
ssI27
(dp679
g354
g16
(g20
S'\xec5>\xb0P\xe9\x19@'
p680
tp681
Rp682
ssI28
(dp683
g354
g16
(g20
S'\xceR~\xa9(*\xfb?'
p684
tp685
Rp686
ssI29
(dp687
g354
g16
(g20
S'\xfa\xdf\xd3s\xc3\x9a\x11@'
p688
tp689
Rp690
ssI30
(dp691
g354
g16
(g20
S'q\x07\xea\xbd\xafw\x0c@'
p692
tp693
Rp694
ssI31
(dp695
g354
g16
(g20
S"\t\xb0'\xf0\xac\n\x17@"
p696
tp697
Rp698
sssI6
(dp699
I1
g447
sI2
g464
sI17
(dp700
g354
g16
(g20
S'\xcbR~\xa9(*\xfb?'
p701
tp702
Rp703
ssI9
(dp704
g354
g16
(g20
S'a\x13B\x7fsY\xf3?'
p705
tp706
Rp707
sssI7
(dp708
I0
g370
sI33
(dp709
g354
g16
(g20
S'_T\xbd|K\xb9\x0f@'
p710
tp711
Rp712
ssI2
g468
sI3
g525
sI5
g635
sI39
(dp713
g354
g16
(g20
S'\x06rj\x10&\xb2\x04@'
p714
tp715
Rp716
ssI10
(dp717
g354
g16
(g20
S'"\x1d\x8a\xa7\x13\x9c\x12@'
p718
tp719
Rp720
ssI13
(dp721
g354
g16
(g20
S'G==\x8b\xda\x88\x03@'
p722
tp723
Rp724
ssI15
(dp725
g354
g16
(g20
S'\xb9\xd9\xa7\xb3\xd1\x00\x19@'
p726
tp727
Rp728
ssI34
(dp729
g354
g16
(g20
S'\x19y\x017U5\x03@'
p730
tp731
Rp732
ssI18
(dp733
g354
g16
(g20
S'\xd8{\x0b\xa8\x9c\xa5\x00@'
p734
tp735
Rp736
ssI35
(dp737
g354
g16
(g20
S'2\xfbV\x86\x91H\x17@'
p738
tp739
Rp740
ssI25
(dp741
g354
g16
(g20
S'\xd7)t\x95<?\xfb?'
p742
tp743
Rp744
ssI27
(dp745
g354
g16
(g20
S'\xbeTz\xd0\xb21 @'
p746
tp747
Rp748
ssI28
(dp749
g354
g16
(g20
S'I\x86\xe1\x0f\x03\x1b\x0c@'
p750
tp751
Rp752
ssI30
(dp753
g354
g16
(g20
S'\xcf\xbaa?\xe0\x1f\x00@'
p754
tp755
Rp756
ssI37
(dp757
g354
g16
(g20
S'\x99e\xe6zp}\xf4?'
p758
tp759
Rp760
sssI8
(dp761
I35
(dp762
g354
g16
(g20
S'\xe5\x10\xe4sW\x0f\t@'
p763
tp764
Rp765
ssI4
g594
sI38
(dp766
g354
g16
(g20
S'_\xcb\xecT\xd5\x10\x11@'
p767
tp768
Rp769
ssI10
(dp770
g354
g16
(g20
S'j\xde\xd0\rw\xd5\x18@'
p771
tp772
Rp773
ssI12
(dp774
g354
g16
(g20
S'\xf0\xe5\x98W\x05\xaa\x08@'
p775
tp776
Rp777
ssI14
(dp778
g354
g16
(g20
S'\x12\x9a\xfdat\xae\x03@'
p779
tp780
Rp781
ssI15
(dp782
g354
g16
(g20
S'tz\xf7\x10\x8e\xdf\x12@'
p783
tp784
Rp785
ssI19
(dp786
g354
g16
(g20
S'[\xf5\x8f\x19\xf5\xe7\x02@'
p787
tp788
Rp789
ssI22
(dp790
g354
g16
(g20
S'\x00\xff\x9f\x99\xcc\x9c\xf9?'
p791
tp792
Rp793
ssI23
(dp794
g354
g16
(g20
S'?\xd5\xdd\xe6\x1d\x05\x00@'
p795
tp796
Rp797
ssI36
(dp798
g354
g16
(g20
S'HH\xfc\xd4\x04\xce\x10@'
p799
tp800
Rp801
sssI9
(dp802
I0
g378
sI1
g439
sI2
g472
sI3
g529
sI5
g639
sI6
g704
sI39
(dp803
g354
g16
(g20
S'\xe61\xcd\xa8\x8f\xcb\x18@'
p804
tp805
Rp806
ssI13
(dp807
g354
g16
(g20
S'\x9e\xac\xa2F\x82\xc6\x06@'
p808
tp809
Rp810
ssI17
(dp811
g354
g16
(g20
S'\xf7\xd87\x8e6\xe3\x06@'
p812
tp813
Rp814
ssI18
(dp815
g354
g16
(g20
S'\x05%\xde\xf6\xa3r\x17@'
p816
tp817
Rp818
ssI25
(dp819
g354
g16
(g20
S'\x87\xee\x9b\xb7\xad\xce\x15@'
p820
tp821
Rp822
ssI26
(dp823
g354
g16
(g20
S'_&\xa8\xe5\x1dQ\xe0?'
p824
tp825
Rp826
ssI27
(dp827
g354
g16
(g20
S"\xbb\x91\xc3'\x8f\x02\x10@"
p828
tp829
Rp830
ssI28
(dp831
g354
g16
(g20
S'\xfeT\x13\x82\x82\xbd\xf6?'
p832
tp833
Rp834
ssI29
(dp835
g354
g16
(g20
S';\x17o\xca\xff\xd9\xf8?'
p836
tp837
Rp838
ssI30
(dp839
g354
g16
(g20
S'K\xd0\x02K3\xde\x17@'
p840
tp841
Rp842
ssI31
(dp843
g354
g16
(g20
S'\x8d"\xcc\x14\xf3m\x08@'
p844
tp845
Rp846
sssI10
(dp847
I0
g382
sI33
(dp848
g354
g16
(g20
S'\xe5>N[\x914\n@'
p849
tp850
Rp851
ssI34
(dp852
g354
g16
(g20
S'I\xa8\xe3\xf5n\x01\t@'
p853
tp854
Rp855
ssI35
(dp856
g354
g16
(g20
S'\x9e.|\xae!\x86\n@'
p857
tp858
Rp859
ssI4
g598
sI5
g643
sI7
g717
sI8
g770
sI39
(dp860
g354
g16
(g20
S'1\x1d\x94\xd5\xcf:\x18@'
p861
tp862
Rp863
ssI13
(dp864
g354
g16
(g20
S'4\xe7\x19\xc4\xf0\xea\x1b@'
p865
tp866
Rp867
ssI14
(dp868
g354
g16
(g20
S'\xbf\x15\xf0]6\xde @'
p869
tp870
Rp871
ssI15
(dp872
g354
g16
(g20
S'\xb2\xa4W!\xc7\x9d\x03@'
p873
tp874
Rp875
ssI18
(dp876
g354
g16
(g20
S'3\x99\x80=n3\x16@'
p877
tp878
Rp879
ssI19
(dp880
g354
g16
(g20
S'\xcb\xb7\xa6\x91\xe7\xa5\x0f@'
p881
tp882
Rp883
ssI22
(dp884
g354
g16
(g20
S'P/W\x1f.?\x16@'
p885
tp886
Rp887
ssI23
(dp888
g354
g16
(g20
S'\xb9\x92\xcc\xa4p\xde\x10@'
p889
tp890
Rp891
ssI25
(dp892
g354
g16
(g20
S'\xe9\xa5\xe4\xe1K\xd8\x15@'
p893
tp894
Rp895
ssI30
(dp896
g354
g16
(g20
S'I\xe8[@\x93\x9d\x14@'
p897
tp898
Rp899
ssI37
(dp900
g354
g16
(g20
S'\xea\xc0"\tD\xdf\x0c@'
p901
tp902
Rp903
sssI11
(dp904
I32
(dp905
g354
g16
(g20
S'\x15\xe2\xcb\x98\x82:\t@'
p906
tp907
Rp908
ssI3
g533
sI36
(dp909
g354
g16
(g20
S'\xac\xb8\xf8\xb5\xdc9\x13@'
p910
tp911
Rp912
ssI38
(dp913
g354
g16
(g20
S'\xf2BuM\xc9\xa9\x0f@'
p914
tp915
Rp916
ssI12
(dp917
g354
g16
(g20
S'\x9a\x84(\xd4\x82`\x11@'
p918
tp919
Rp920
ssI14
(dp921
g354
g16
(g20
S'S\xbf\xa1\t\xf3\x0e\x1a@'
p922
tp923
Rp924
ssI16
(dp925
g354
g16
(g20
S'\x06\xea\x86\xc6q\xad\xfc?'
p926
tp927
Rp928
ssI20
(dp929
g354
g16
(g20
S'\xde[\x04K\xee\x00\x06@'
p930
tp931
Rp932
ssI21
(dp933
g354
g16
(g20
S'\xb92V\x95\xc1\xff\x04@'
p934
tp935
Rp936
ssI24
(dp937
g354
g16
(g20
S'\xd4\x87\xa8\x8cW\x9a\x0b@'
p938
tp939
Rp940
ssI27
(dp941
g354
g16
(g20
S'\xa34\xc7\x950\xe9\xfc?'
p942
tp943
Rp944
ssI31
(dp945
g354
g16
(g20
S'\x18x\xa7\x82\xf0=\xfa?'
p946
tp947
Rp948
sssI12
(dp949
I32
(dp950
g354
g16
(g20
S';\x98\xee{8M\xf5?'
p951
tp952
Rp953
ssI35
(dp954
g354
g16
(g20
S'I\xb6\xc0J\xad\xdc\x18@'
p955
tp956
Rp957
ssI4
g602
sI38
(dp958
g354
g16
(g20
S'UenY\n\x04\xf3?'
p959
tp960
Rp961
ssI8
g774
sI11
g917
sI14
(dp962
g354
g16
(g20
S'\xd39_\x1f0\xe9\x01@'
p963
tp964
Rp965
ssI15
(dp966
g354
g16
(g20
S'\xf2\xfc\xb8\x9b\xc4.\x1f@'
p967
tp968
Rp969
ssI16
(dp970
g354
g16
(g20
S'\x04<1\xe0\xe1\x06\r@'
p971
tp972
Rp973
ssI19
(dp974
g354
g16
(g20
S'd\xa9\x13\x9f\xdd\xc7\x15@'
p975
tp976
Rp977
ssI20
(dp978
g354
g16
(g20
S'\x86\x84\xab\x8d\xe3\x95\xfb?'
p979
tp980
Rp981
ssI21
(dp982
g354
g16
(g20
S'(\x96`}\xb1\x0b\xfc?'
p983
tp984
Rp985
ssI22
(dp986
g354
g16
(g20
S'\xadt\xa4\x14\xbd\x91\x11@'
p987
tp988
Rp989
ssI23
(dp990
g354
g16
(g20
S'\xcey?\xdc\x9a?\x14@'
p991
tp992
Rp993
ssI24
(dp994
g354
g16
(g20
S'#\x9f\x11` \xdf\xf3?'
p995
tp996
Rp997
ssI36
(dp998
g354
g16
(g20
S'\xf6/\x12_ee\xf4?'
p999
tp1000
Rp1001
ssI27
(dp1002
g354
g16
(g20
S'\xd9\xbb\x04zA\x11\x18@'
p1003
tp1004
Rp1005
ssI31
(dp1006
g354
g16
(g20
S'\x9a\xbd}\xcb\x94\x0f\x15@'
p1007
tp1008
Rp1009
sssI13
(dp1010
I0
g390
sI33
(dp1011
g354
g16
(g20
S'!LbG\xbd\xcd\x15@'
p1012
tp1013
Rp1014
ssI2
g480
sI3
g537
sI5
g651
sI7
g721
sI37
(dp1015
g354
g16
(g20
S'\xf2\xae\xbe*(\xb3\r@'
p1016
tp1017
Rp1018
ssI9
g807
sI10
g864
sI39
(dp1019
g354
g16
(g20
S'\xba\x96]\xd6\xa4\xcf\x0c@'
p1020
tp1021
Rp1022
ssI34
(dp1023
g354
g16
(g20
S'\x1f\xe2\xd0v!.\x13@'
p1024
tp1025
Rp1026
ssI15
(dp1027
g354
g16
(g20
S'\x07\xf8\xd4\xf7\xddy @'
p1028
tp1029
Rp1030
ssI18
(dp1031
g354
g16
(g20
S'\xba\xfc\x16"\xf99\x0b@'
p1032
tp1033
Rp1034
ssI35
(dp1035
g354
g16
(g20
S'\x15\xba\x82\x16\x18\xd1\x1d@'
p1036
tp1037
Rp1038
ssI25
(dp1039
g354
g16
(g20
S'\xd6+)\xe9[A\x08@'
p1040
tp1041
Rp1042
ssI26
(dp1043
g354
g16
(g20
S'\xe2\x00B\xe2\x88\xed\x03@'
p1044
tp1045
Rp1046
ssI27
(dp1047
g354
g16
(g20
S'\xf5\xbb\xd6\xb6\xbe~\x19@'
p1048
tp1049
Rp1050
ssI28
(dp1051
g354
g16
(g20
S'\x8c|hT\xa5l\xf9?'
p1052
tp1053
Rp1054
ssI29
(dp1055
g354
g16
(g20
S'\x80\x84\xd0\xdf\xc4(\x11@'
p1056
tp1057
Rp1058
ssI30
(dp1059
g354
g16
(g20
S'\xe9\xfbv \xd5\x1e\r@'
p1060
tp1061
Rp1062
ssI31
(dp1063
g354
g16
(g20
S'IT\x04\x85/\x9b\x16@'
p1064
tp1065
Rp1066
sssI14
(dp1067
I32
(dp1068
g354
g16
(g20
S'_\xbd\x99V\xa6\x89\x0c@'
p1069
tp1070
Rp1071
ssI35
(dp1072
g354
g16
(g20
S'\xc8\x10\xb4\xaa\xcb\xa1\x14@'
p1073
tp1074
Rp1075
ssI4
g606
sI38
(dp1076
g354
g16
(g20
S'F#O3\xb2t\t@'
p1077
tp1078
Rp1079
ssI8
g778
sI10
g868
sI11
g921
sI12
g962
sI15
(dp1080
g354
g16
(g20
S'(\xb8\xd3\xa7\x02C\x1a@'
p1081
tp1082
Rp1083
ssI19
(dp1084
g354
g16
(g20
S'K\xfc\xe1Ly\xe9\x11@'
p1085
tp1086
Rp1087
ssI20
(dp1088
g354
g16
(g20
S'\xb3co\xef \xb4\x0f@'
p1089
tp1090
Rp1091
ssI21
(dp1092
g354
g16
(g20
S'q7:\xcc*\x1e\x0f@'
p1093
tp1094
Rp1095
ssI22
(dp1096
g354
g16
(g20
S'\xe1\xba\xe8\x8fA\xaf\x07@'
p1097
tp1098
Rp1099
ssI23
(dp1100
g354
g16
(g20
S'\x14HN\xca\x07\x0c\x11@'
p1101
tp1102
Rp1103
ssI24
(dp1104
g354
g16
(g20
S'S\xff\x8f{\xabp\x0b@'
p1105
tp1106
Rp1107
ssI36
(dp1108
g354
g16
(g20
S'433333\x05@'
p1109
tp1110
Rp1111
ssI27
(dp1112
g354
g16
(g20
S'\x95N\xb2\xbe\n3 @'
p1113
tp1114
Rp1115
sssI15
(dp1116
I0
g394
sI4
g610
sI5
g655
sI7
g725
sI8
g782
sI10
g872
sI12
g966
sI13
g1027
sI14
g1080
sI18
(dp1117
g354
g16
(g20
S'\xa8Y\x05\x99\xc0z\x1e@'
p1118
tp1119
Rp1120
ssI19
(dp1121
g354
g16
(g20
S'\x86+\xf3\xe9\x9a\x1a\x03@'
p1122
tp1123
Rp1124
ssI22
(dp1125
g354
g16
(g20
S'\xf4YaD+\xd8\x0c@'
p1126
tp1127
Rp1128
ssI23
(dp1129
g354
g16
(g20
S'\xf9\xfa\x8c\x0bi\xbe\x06@'
p1130
tp1131
Rp1132
ssI25
(dp1133
g354
g16
(g20
S'n\x00N\xee\x0c\xca\x1d@'
p1134
tp1135
Rp1136
ssI30
(dp1137
g354
g16
(g20
S'\xdcw\x11uI\x0e\x1d@'
p1138
tp1139
Rp1140
ssI33
(dp1141
g354
g16
(g20
S'\x19\xb3\xfe\x11\x8b\xa2\x08@'
p1142
tp1143
Rp1144
ssI34
(dp1145
g354
g16
(g20
S'\xfb\x9f8c\x99w\x15@'
p1146
tp1147
Rp1148
ssI35
(dp1149
g354
g16
(g20
S'\x8b\x051_J\xd9\xf9?'
p1150
tp1151
Rp1152
ssI36
(dp1153
g354
g16
(g20
S'7odK\xc7\xb3!@'
p1154
tp1155
Rp1156
ssI37
(dp1157
g354
g16
(g20
S'=qF2b\x18\x16@'
p1158
tp1159
Rp1160
ssI38
(dp1161
g354
g16
(g20
S'\x06ep\x86\xe3\xf6!@'
p1162
tp1163
Rp1164
ssI39
(dp1165
g354
g16
(g20
S"=\xb3\xc6\xe8'S @"
p1166
tp1167
Rp1168
sssI16
(dp1169
I32
(dp1170
g354
g16
(g20
S'q\xf5\xba\xc7R\xfb\x06@'
p1171
tp1172
Rp1173
ssI36
(dp1174
g354
g16
(g20
S'\xf8\x83\x90BM\x13\x12@'
p1175
tp1176
Rp1177
ssI38
(dp1178
g354
g16
(g20
S'\x7f\xcf\x18\x94\xfa\x1d\x0e@'
p1179
tp1180
Rp1181
ssI11
g925
sI12
g970
sI20
(dp1182
g354
g16
(g20
S'i\xc8\x96\xd6\xc8\xcd\x04@'
p1183
tp1184
Rp1185
ssI21
(dp1186
g354
g16
(g20
S'\xa2\x86\x8cs\x82\xd9\xff?'
p1187
tp1188
Rp1189
ssI24
(dp1190
g354
g16
(g20
S'\x9a\xf9l6@\xdd\t@'
p1191
tp1192
Rp1193
ssI27
(dp1194
g354
g16
(g20
S'\xd9F`?#\xd3\x05@'
p1195
tp1196
Rp1197
ssI31
(dp1198
g354
g16
(g20
S'$Xw\xb2>\xc5\xfb?'
p1199
tp1200
Rp1201
sssI17
(dp1202
I1
g451
sI2
g484
sI6
g700
sI9
g811
ssI18
(dp1203
I0
g402
sI33
(dp1204
g354
g16
(g20
S'\x17\x11\x12\x8cZZ\x17@'
p1205
tp1206
Rp1207
ssI2
g488
sI3
g541
sI5
g663
sI7
g733
sI9
g815
sI10
g876
sI39
(dp1208
g354
g16
(g20
S'\xa8\xf4\x97\x9bw\xe3\xe1?'
p1209
tp1210
Rp1211
ssI13
g1031
sI15
g1117
sI34
(dp1212
g354
g16
(g20
S'ST\xaf\x99\x8a\xcc\x03@'
p1213
tp1214
Rp1215
ssI37
(dp1216
g354
g16
(g20
S'\xb7\xc3\xb4Z\xa2\xf3\x00@'
p1217
tp1218
Rp1219
ssI35
(dp1220
g354
g16
(g20
S'\xa8\x9c\xb3\xdcB\x13\x1e@'
p1221
tp1222
Rp1223
ssI25
(dp1224
g354
g16
(g20
S'\xab\xe1\x7f\xd7Kc\xda?'
p1225
tp1226
Rp1227
ssI26
(dp1228
g354
g16
(g20
S'X1\xe0\x15\xb2\x89\x15@'
p1229
tp1230
Rp1231
ssI27
(dp1232
g354
g16
(g20
S'\x91aeJwf#@'
p1233
tp1234
Rp1235
ssI28
(dp1236
g354
g16
(g20
S'Q\x81\xa4Y \xa0\x13@'
p1237
tp1238
Rp1239
ssI29
(dp1240
g354
g16
(g20
S'\x98\x18\x01\xf4\x01\xa5\x1d@'
p1241
tp1242
Rp1243
ssI30
(dp1244
g354
g16
(g20
S'\xa4\xbaIt?W\xdb?'
p1245
tp1246
Rp1247
ssI31
(dp1248
g354
g16
(g20
S'\x11f\xe0\x16Z\xc1!@'
p1249
tp1250
Rp1251
sssI19
(dp1252
I34
(dp1253
g354
g16
(g20
S'\xfd1\x9f\xeb?\xc2\x17@'
p1254
tp1255
Rp1256
ssI35
(dp1257
g354
g16
(g20
S')\x86\\\xb3\xb3\xd6\xe8?'
p1258
tp1259
Rp1260
ssI4
g614
sI37
(dp1261
g354
g16
(g20
S'\x1b\xf5\x03\x17Jw\x16@'
p1262
tp1263
Rp1264
ssI8
g786
sI10
g880
sI12
g974
sI14
g1084
sI15
g1121
sI22
(dp1265
g354
g16
(g20
S'\xe3\xe2(\xe3f\xe1\xfa?'
p1266
tp1267
Rp1268
ssI23
(dp1269
g354
g16
(g20
S'T\xed~\x8f\xaa\xad\xdf?'
p1270
tp1271
Rp1272
ssI36
(dp1273
g354
g16
(g20
S'p]hc\xf54\x1a@'
p1274
tp1275
Rp1276
sssI20
(dp1277
I32
(dp1278
g354
g16
(g20
S'\xaa\xe1\x7f\xd7Kc\xda?'
p1279
tp1280
Rp1281
ssI36
(dp1282
g354
g16
(g20
S'\xdb\xce\xd51\x1e\x93\x00@'
p1283
tp1284
Rp1285
ssI38
(dp1286
g354
g16
(g20
S'<\xe9\x9f\xe1x\xca\xf3?'
p1287
tp1288
Rp1289
ssI11
g929
sI12
g978
sI14
g1088
sI16
g1182
sI21
(dp1290
g354
g16
(g20
S'S[\xda:XL\xe9?'
p1291
tp1292
Rp1293
ssI24
(dp1294
g354
g16
(g20
S'\xce;\x7ff\x9e\xa0\xe6?'
p1295
tp1296
Rp1297
ssI27
(dp1298
g354
g16
(g20
S'd\xbd\x19++\x12\x12@'
p1299
tp1300
Rp1301
ssI31
(dp1302
g354
g16
(g20
S"'\xf2\x90In\x9f\x0f@"
p1303
tp1304
Rp1305
sssI21
(dp1306
I32
(dp1307
g354
g16
(g20
S'\xf3\x00?\x85gj\xed?'
p1308
tp1309
Rp1310
ssI36
(dp1311
g354
g16
(g20
S'\xa5K\xa7\xfe\t:\x04@'
p1312
tp1313
Rp1314
ssI38
(dp1315
g354
g16
(g20
S'H\x90F\xa1\xde\xa4\xfc?'
p1316
tp1317
Rp1318
ssI11
g933
sI12
g982
sI14
g1092
sI16
g1186
sI20
g1290
sI24
(dp1319
g354
g16
(g20
S'\xf7/\x12_ee\xf4?'
p1320
tp1321
Rp1322
ssI27
(dp1323
g354
g16
(g20
S'G\xd0\xe0\x92\xbb\x0e\x11@'
p1324
tp1325
Rp1326
ssI31
(dp1327
g354
g16
(g20
S'\xc0\n\x1f\x00\xc6H\x0c@'
p1328
tp1329
Rp1330
sssI22
(dp1331
I35
(dp1332
g354
g16
(g20
S'\x82\x96\x8d\xbeN\xfa\x01@'
p1333
tp1334
Rp1335
ssI4
g618
sI38
(dp1336
g354
g16
(g20
S'\x97d\xda]\x11I\x16@'
p1337
tp1338
Rp1339
ssI8
g790
sI10
g884
sI12
g986
sI14
g1096
sI15
g1125
sI19
g1265
sI23
(dp1340
g354
g16
(g20
S'\xdf\xe2(\xe3f\xe1\xfa?'
p1341
tp1342
Rp1343
ssI24
(dp1344
g354
g16
(g20
S'\xd2\xf1}\x82U\\\x16@'
p1345
tp1346
Rp1347
ssI36
(dp1348
g354
g16
(g20
S',\xcb\x9f\x03vM\x15@'
p1349
tp1350
Rp1351
sssI23
(dp1352
I35
(dp1353
g354
g16
(g20
S'\x87\xf3\xf3\xf7i\xad\xf3?'
p1354
tp1355
Rp1356
ssI4
g622
sI8
g794
sI10
g888
sI12
g990
sI14
g1100
sI15
g1129
sI19
g1269
sI22
g1340
sI36
(dp1357
g354
g16
(g20
S'\xd7&\xb84\x1a\xd0\x18@'
p1358
tp1359
Rp1360
sssI24
(dp1361
I32
(dp1362
g354
g16
(g20
S'\x8d\xe1M\xd0U\x13\xd7?'
p1363
tp1364
Rp1365
ssI36
(dp1366
g354
g16
(g20
S'W\x1f\xb3\xbe\xf3\xd5\xf5?'
p1367
tp1368
Rp1369
ssI38
(dp1370
g354
g16
(g20
S']\xae \xea\x86;\xe1?'
p1371
tp1372
Rp1373
ssI11
g937
sI12
g994
sI14
g1104
sI16
g1190
sI20
g1294
sI21
g1319
sI22
g1344
sI27
(dp1374
g354
g16
(g20
S'P2\x10\xd7[\xe5\x14@'
p1375
tp1376
Rp1377
ssI31
(dp1378
g354
g16
(g20
S'u\x85\x18\x11\xe0\x99\x12@'
p1379
tp1380
Rp1381
sssI25
(dp1382
I0
g410
sI33
(dp1383
g354
g16
(g20
S'\xa6\x0e\xd1\x99Y(\x16@'
p1384
tp1385
Rp1386
ssI2
g492
sI3
g549
sI5
g671
sI7
g741
sI37
(dp1387
g354
g16
(g20
S'\xa8g15\xd0\xc6\xfe?'
p1388
tp1389
Rp1390
ssI9
g819
sI10
g892
sI39
(dp1391
g354
g16
(g20
S'\xb0\x80tQ\x90N\xec?'
p1392
tp1393
Rp1394
ssI13
g1039
sI15
g1133
sI34
(dp1395
g354
g16
(g20
S'\x97Q\xff\xc5\xf6\xbb\x03@'
p1396
tp1397
Rp1398
ssI18
g1224
sI35
(dp1399
g354
g16
(g20
S'<&\x17\xabs\x14\x1d@'
p1400
tp1401
Rp1402
ssI26
(dp1403
g354
g16
(g20
S'[\x19\xf7\xc9\x88\xe4\x13@'
p1404
tp1405
Rp1406
ssI27
(dp1407
g354
g16
(g20
S'\x06\xcd\xff$8\x9a"@'
p1408
tp1409
Rp1410
ssI28
(dp1411
g354
g16
(g20
S'\x03n\xf3\xb0\xea\r\x12@'
p1412
tp1413
Rp1414
ssI29
(dp1415
g354
g16
(g20
S'\xef\xc5\xf9\r\xd4\x01\x1c@'
p1416
tp1417
Rp1418
ssI30
(dp1419
g354
g16
(g20
S'\x89\rP\xf6E\x0c\xe4?'
p1420
tp1421
Rp1422
ssI31
(dp1423
g354
g16
(g20
S"\x08'\xb1\xf4J\xf1 @"
p1424
tp1425
Rp1426
sssI26
(dp1427
I0
g414
sI2
g496
sI3
g553
sI5
g675
sI39
(dp1428
g354
g16
(g20
S'\x81a%{\xf5\xf1\x16@'
p1429
tp1430
Rp1431
ssI9
g823
sI13
g1043
sI18
g1228
sI25
g1403
sI27
(dp1432
g354
g16
(g20
S'\x1f\xf3\x95\xa4\x7f\x0c\x12@'
p1433
tp1434
Rp1435
ssI28
(dp1436
g354
g16
(g20
S'\x0fIHb\x13=\xf4?'
p1437
tp1438
Rp1439
ssI29
(dp1440
g354
g16
(g20
S'gfffff\x00@'
p1441
tp1442
Rp1443
ssI30
(dp1444
g354
g16
(g20
S'k\x84\xcdw%\xe9\x15@'
p1445
tp1446
Rp1447
ssI31
(dp1448
g354
g16
(g20
S'b\xf6?\xe7gx\x0c@'
p1449
tp1450
Rp1451
sssI27
(dp1452
I0
g418
sI2
g500
sI3
g557
sI5
g679
sI7
g745
sI9
g827
sI11
g941
sI12
g1002
sI13
g1047
sI14
g1112
sI16
g1194
sI18
g1232
sI20
g1298
sI21
g1323
sI24
g1374
sI25
g1407
sI26
g1432
sI28
(dp1453
g354
g16
(g20
S'\x0c}5\xfev7\x13@'
p1454
tp1455
Rp1456
ssI29
(dp1457
g354
g16
(g20
S'\xf6\x06T\xdaln\x04@'
p1458
tp1459
Rp1460
ssI30
(dp1461
g354
g16
(g20
S'\xc7\xc8\xb9\xcfu\xb8#@'
p1462
tp1463
Rp1464
ssI31
(dp1465
g354
g16
(g20
S'zE\x06\x1c##\xf2?'
p1466
tp1467
Rp1468
ssI32
(dp1469
g354
g16
(g20
S'\r\x15\x07\xcb\xfe\xa2\x13@'
p1470
tp1471
Rp1472
ssI36
(dp1473
g354
g16
(g20
S'\x9fJa\xbfdY\x1a@'
p1474
tp1475
Rp1476
ssI38
(dp1477
g354
g16
(g20
S't\x9c$:\xa6\xf8\x16@'
p1478
tp1479
Rp1480
ssI39
(dp1481
g354
g16
(g20
S'\x93@\xd5}\x9b\xeb#@'
p1482
tp1483
Rp1484
sssI28
(dp1485
I0
g422
sI2
g504
sI3
g561
sI5
g683
sI7
g749
sI37
(dp1486
g354
g16
(g20
S'\xccXU3\x11\x0f\x13@'
p1487
tp1488
Rp1489
ssI9
g831
sI39
(dp1490
g354
g16
(g20
S'6\xc4\xf6W\xcf\x9f\x14@'
p1491
tp1492
Rp1493
ssI13
g1051
sI34
(dp1494
g354
g16
(g20
S'\xa8\x18\x86yI\x9d\x17@'
p1495
tp1496
Rp1497
ssI18
g1236
sI25
g1411
sI26
g1436
sI27
g1453
sI29
(dp1498
g354
g16
(g20
S'\xd8F`?#\xd3\x05@'
p1499
tp1500
Rp1501
ssI30
(dp1502
g354
g16
(g20
S'\xea\x039\x14\xdc]\x14@'
p1503
tp1504
Rp1505
ssI31
(dp1506
g354
g16
(g20
S'\xf3a\xbcI#@\x10@'
p1507
tp1508
Rp1509
sssI29
(dp1510
I0
g426
sI2
g508
sI3
g565
sI5
g687
sI39
(dp1511
g354
g16
(g20
S'\x19)\x1f\xad\xc6\xf2\x1e@'
p1512
tp1513
Rp1514
ssI9
g835
sI13
g1055
sI18
g1240
sI25
g1415
sI26
g1440
sI27
g1457
sI28
g1498
sI30
(dp1515
g354
g16
(g20
S'.Vr{\x9f\x14\x1e@'
p1516
tp1517
Rp1518
ssI31
(dp1519
g354
g16
(g20
S';\xdcc\xb3\xbfT\xf8?'
p1520
tp1521
Rp1522
sssI30
(dp1523
I0
g430
sI33
(dp1524
g354
g16
(g20
S'n4\xc2\xe9\xa0f\x16@'
p1525
tp1526
Rp1527
ssI2
g512
sI3
g569
sI5
g691
sI7
g753
sI37
(dp1528
g354
g16
(g20
S'\xa2)\xd4}\xff\xfc\xfc?'
p1529
tp1530
Rp1531
ssI9
g839
sI10
g896
sI39
(dp1532
g354
g16
(g20
S'\xa0&\xc3\xe7+\xfa\xec?'
p1533
tp1534
Rp1535
ssI13
g1059
sI15
g1137
sI34
(dp1536
g354
g16
(g20
S'\xb0\xf5\x86JUz\x00@'
p1537
tp1538
Rp1539
ssI18
g1244
sI35
(dp1540
g354
g16
(g20
S'\x95\xa5\x1b\x00\xe0\xe3\x1c@'
p1541
tp1542
Rp1543
ssI25
g1419
sI26
g1444
sI27
g1461
sI28
g1502
sI29
g1515
sI31
(dp1544
g354
g16
(g20
S'e\x1e\x95-\x8f\x02"@'
p1545
tp1546
Rp1547
sssI31
(dp1548
I0
g434
sI2
g516
sI3
g573
sI5
g695
sI9
g843
sI11
g945
sI12
g1006
sI13
g1063
sI16
g1198
sI18
g1248
sI20
g1302
sI21
g1327
sI24
g1378
sI25
g1423
sI26
g1448
sI27
g1465
sI28
g1506
sI29
g1519
sI30
g1544
sI32
(dp1549
g354
g16
(g20
S'Y\xab\x1bu\xbe9\x11@'
p1550
tp1551
Rp1552
ssI36
(dp1553
g354
g16
(g20
S"\xb8\xc8\x1e'\xa0\x03\x18@"
p1554
tp1555
Rp1556
ssI38
(dp1557
g354
g16
(g20
S'l\xf6\x1a\xb6}\xbf\x14@'
p1558
tp1559
Rp1560
ssI39
(dp1561
g354
g16
(g20
S'\xbf\x8f+\t\x89["@'
p1562
tp1563
Rp1564
sssI32
(dp1565
I36
(dp1566
g354
g16
(g20
S'\xcaR~\xa9(*\xfb?'
p1567
tp1568
Rp1569
ssI38
(dp1570
g354
g16
(g20
S'\xd8\xed\xbf\xc5%\x9f\xec?'
p1571
tp1572
Rp1573
ssI11
g905
sI12
g950
sI14
g1068
sI16
g1170
sI20
g1278
sI21
g1307
sI24
g1362
sI27
g1469
sI31
g1549
ssI33
(dp1574
I0
g353
sI34
(dp1575
g354
g16
(g20
S'+i:\\\x80N\x11@'
p1576
tp1577
Rp1578
ssI35
(dp1579
g354
g16
(g20
S"\xe6'\x03\xfc\x80\x0b\x00@"
p1580
tp1581
Rp1582
ssI5
g627
sI7
g709
sI10
g848
sI39
(dp1583
g354
g16
(g20
S'\xab\x84V\xa4\x98\x92\x19@'
p1584
tp1585
Rp1586
ssI13
g1011
sI15
g1141
sI18
g1204
sI25
g1383
sI30
g1524
sI37
(dp1587
g354
g16
(g20
S'\xf4G\x9b\x0e\x18\x98\x0e@'
p1588
tp1589
Rp1590
sssI34
(dp1591
I0
g398
sI33
g1575
sI35
(dp1592
g354
g16
(g20
S'\x1b;\xfb\x90z]\x16@'
p1593
tp1594
Rp1595
ssI4
g578
sI5
g659
sI7
g729
sI10
g852
sI39
(dp1596
g354
g16
(g20
S'\x8e\xfa\xf5\xf7\x11\x9d\x07@'
p1597
tp1598
Rp1599
ssI13
g1023
sI15
g1145
sI18
g1212
sI19
g1253
sI25
g1395
sI28
g1494
sI30
g1536
sI37
(dp1600
g354
g16
(g20
S'\xa5B\xf8\x88!G\xf2?'
p1601
tp1602
Rp1603
sssI35
(dp1604
I0
g406
sI33
g1579
sI34
g1592
sI4
g582
sI5
g667
sI7
g737
sI8
g762
sI10
g856
sI39
(dp1605
g354
g16
(g20
S"1\xb1u\xea\xa5' @"
p1606
tp1607
Rp1608
ssI12
g954
sI13
g1035
sI14
g1072
sI15
g1149
sI18
g1220
sI19
g1257
sI22
g1332
sI23
g1353
sI25
g1399
sI37
(dp1609
g354
g16
(g20
S'\x0c\x0cY\xe03\xa5\x15@'
p1610
tp1611
Rp1612
ssI30
g1540
sI36
(dp1613
g354
g16
(g20
S'\xcd6\xeen\xc9;\x1d@'
p1614
tp1615
Rp1616
sssI36
(dp1617
I32
g1566
sI35
g1613
sI4
g586
sI38
(dp1618
g354
g16
(g20
S'033333\xeb?'
p1619
tp1620
Rp1621
ssI8
g798
sI11
g909
sI12
g998
sI14
g1108
sI15
g1153
sI16
g1174
sI19
g1273
sI20
g1282
sI21
g1311
sI22
g1348
sI23
g1357
sI24
g1366
sI27
g1473
sI31
g1553
ssI37
(dp1622
I0
g374
sI33
g1587
sI34
g1600
sI35
g1609
sI5
g631
sI7
g757
sI10
g900
sI39
(dp1623
g354
g16
(g20
S'\x8e\r\xa2\x1f4e\x05@'
p1624
tp1625
Rp1626
ssI13
g1015
sI15
g1157
sI18
g1216
sI19
g1261
sI25
g1387
sI28
g1486
sI30
g1528
ssI38
(dp1627
I32
g1570
sI4
g590
sI8
g766
sI11
g913
sI12
g958
sI14
g1076
sI15
g1161
sI16
g1178
sI20
g1286
sI21
g1315
sI22
g1336
sI24
g1370
sI36
g1618
sI27
g1477
sI31
g1557
ssI39
(dp1628
I0
g386
sI33
g1583
sI2
g476
sI3
g545
sI5
g647
sI7
g713
sI37
g1623
sI9
g803
sI10
g860
sI13
g1019
sI15
g1165
sI34
g1596
sI18
g1208
sI35
g1605
sI25
g1391
sI26
g1428
sI27
g1481
sI28
g1490
sI29
g1511
sI30
g1532
sI31
g1561
sssS'adjlist_outer_dict_factory'
p1629
g9
sbs.